target datalayout = "e-m:e-p270:32:32-p271:32:32-p272:64:64-i64:64-i128:128-f80:128-n8:16:32:64-S128"
target triple = "x86_64-pc-linux-gnu"

%struct.bf_context_t = type { ptr, ptr, %struct.BFConstCache, %struct.BFConstCache, ptr }
%struct.BFConstCache = type { %struct.bf_t, i64 }
%struct.bf_t = type { ptr, i32, i64, i64, ptr }
%struct.bfdec_t = type { ptr, i32, i64, i64, ptr }

; Function Attrs: inlinehint nounwind uwtable
define internal ptr @bf_realloc(ptr noundef %0, ptr noundef %1, i64 noundef %2) #3 {
  %4 = alloca ptr, align 8
  %5 = alloca ptr, align 8
  %6 = alloca i64, align 8
  store ptr %0, ptr %4, align 8, !tbaa !7
  store ptr %1, ptr %5, align 8, !tbaa !12
  store i64 %2, ptr %6, align 8, !tbaa !27
  %7 = load ptr, ptr %4, align 8, !tbaa !7
  %8 = getelementptr inbounds nuw %struct.bf_context_t, ptr %7, i32 0, i32 1
  %9 = load ptr, ptr %8, align 8, !tbaa !13
  %10 = load ptr, ptr %4, align 8, !tbaa !7
  %11 = getelementptr inbounds nuw %struct.bf_context_t, ptr %10, i32 0, i32 0
  %12 = load ptr, ptr %11, align 8, !tbaa !21
  %13 = load ptr, ptr %5, align 8, !tbaa !12
  %14 = load i64, ptr %6, align 8, !tbaa !27
  %15 = call ptr %9(ptr noundef %12, ptr noundef %13, i64 noundef %14)
  ret ptr %15
}

; Function Attrs: inlinehint nounwind uwtable
define internal void @bf_delete(ptr noundef %0) #3 {
  %2 = alloca ptr, align 8
  %3 = alloca ptr, align 8
  store ptr %0, ptr %2, align 8, !tbaa !12
  call void @llvm.lifetime.start.p0(i64 8, ptr %3) #10
  %4 = load ptr, ptr %2, align 8, !tbaa !12
  %5 = getelementptr inbounds nuw %struct.bf_t, ptr %4, i32 0, i32 0
  %6 = load ptr, ptr %5, align 8, !tbaa !22
  store ptr %6, ptr %3, align 8, !tbaa !7
  %7 = load ptr, ptr %3, align 8, !tbaa !7
  %8 = icmp ne ptr %7, null
  br i1 %8, label %9, label %20

9:                                                ; preds = %1
  %10 = load ptr, ptr %2, align 8, !tbaa !12
  %11 = getelementptr inbounds nuw %struct.bf_t, ptr %10, i32 0, i32 4
  %12 = load ptr, ptr %11, align 8, !tbaa !26
  %13 = icmp ne ptr %12, null
  br i1 %13, label %14, label %20

14:                                               ; preds = %9
  %15 = load ptr, ptr %3, align 8, !tbaa !7
  %16 = load ptr, ptr %2, align 8, !tbaa !12
  %17 = getelementptr inbounds nuw %struct.bf_t, ptr %16, i32 0, i32 4
  %18 = load ptr, ptr %17, align 8, !tbaa !26
  %19 = call ptr @bf_realloc(ptr noundef %15, ptr noundef %18, i64 noundef 0)
  br label %20

20:                                               ; preds = %14, %9, %1
  call void @llvm.lifetime.end.p0(i64 8, ptr %3) #10
  ret void
}

; Function Attrs: nounwind uwtable
define dso_local void @bf_init(ptr noundef %0, ptr noundef %1) #0 {
  %3 = alloca ptr, align 8
  %4 = alloca ptr, align 8
  store ptr %0, ptr %3, align 8, !tbaa !7
  store ptr %1, ptr %4, align 8, !tbaa !12
  %5 = load ptr, ptr %3, align 8, !tbaa !7
  %6 = load ptr, ptr %4, align 8, !tbaa !12
  %7 = getelementptr inbounds nuw %struct.bf_t, ptr %6, i32 0, i32 0
  store ptr %5, ptr %7, align 8, !tbaa !22
  %8 = load ptr, ptr %4, align 8, !tbaa !12
  %9 = getelementptr inbounds nuw %struct.bf_t, ptr %8, i32 0, i32 1
  store i32 0, ptr %9, align 8, !tbaa !23
  %10 = load ptr, ptr %4, align 8, !tbaa !12
  %11 = getelementptr inbounds nuw %struct.bf_t, ptr %10, i32 0, i32 2
  store i64 -9223372036854775808, ptr %11, align 8, !tbaa !24
  %12 = load ptr, ptr %4, align 8, !tbaa !12
  %13 = getelementptr inbounds nuw %struct.bf_t, ptr %12, i32 0, i32 3
  store i64 0, ptr %13, align 8, !tbaa !25
  %14 = load ptr, ptr %4, align 8, !tbaa !12
  %15 = getelementptr inbounds nuw %struct.bf_t, ptr %14, i32 0, i32 4
  store ptr null, ptr %15, align 8, !tbaa !26
  ret void
}

; Function Attrs: inlinehint nounwind uwtable
define internal void @bfdec_delete(ptr noundef %0) #3 {
  %2 = alloca ptr, align 8
  store ptr %0, ptr %2, align 8, !tbaa !12
  %3 = load ptr, ptr %2, align 8, !tbaa !12
  call void @bf_delete(ptr noundef %3)
  ret void
}

; Function Attrs: inlinehint nounwind uwtable
define internal void @bfdec_init(ptr noundef %0, ptr noundef %1) #3 {
  %3 = alloca ptr, align 8
  %4 = alloca ptr, align 8
  store ptr %0, ptr %3, align 8, !tbaa !7
  store ptr %1, ptr %4, align 8, !tbaa !12
  %5 = load ptr, ptr %3, align 8, !tbaa !7
  %6 = load ptr, ptr %4, align 8, !tbaa !12
  call void @bf_init(ptr noundef %5, ptr noundef %6)
  ret void
}

; Function Attrs: nounwind uwtable
define dso_local i32 @bfdec_rem(ptr noundef %0, ptr noundef %1, ptr noundef %2, i64 noundef %3, i32 noundef %4, i32 noundef %5) #0 {
  %7 = alloca ptr, align 8
  %8 = alloca ptr, align 8
  %9 = alloca ptr, align 8
  %10 = alloca i64, align 8
  %11 = alloca i32, align 4
  %12 = alloca i32, align 4
  %13 = alloca %struct.bfdec_t, align 8
  %14 = alloca ptr, align 8
  %15 = alloca i32, align 4
  store ptr %0, ptr %7, align 8, !tbaa !12
  store ptr %1, ptr %8, align 8, !tbaa !12
  store ptr %2, ptr %9, align 8, !tbaa !12
  store i64 %3, ptr %10, align 8, !tbaa !27
  store i32 %4, ptr %11, align 4, !tbaa !29
  store i32 %5, ptr %12, align 4, !tbaa !29
  call void @llvm.lifetime.start.p0(i64 40, ptr %13) #10
  call void @llvm.lifetime.start.p0(i64 8, ptr %14) #10
  store ptr %13, ptr %14, align 8, !tbaa !12
  call void @llvm.lifetime.start.p0(i64 4, ptr %15) #10
  %16 = load ptr, ptr %7, align 8, !tbaa !12
  %17 = getelementptr inbounds nuw %struct.bfdec_t, ptr %16, i32 0, i32 0
  %18 = load ptr, ptr %17, align 8, !tbaa !22
  %19 = load ptr, ptr %14, align 8, !tbaa !12
  call void @bfdec_init(ptr noundef %18, ptr noundef %19)
  %20 = load ptr, ptr %14, align 8, !tbaa !12
  %21 = load ptr, ptr %7, align 8, !tbaa !12
  %22 = load ptr, ptr %8, align 8, !tbaa !12
  %23 = load ptr, ptr %9, align 8, !tbaa !12
  %24 = load i64, ptr %10, align 8, !tbaa !27
  %25 = load i32, ptr %11, align 4, !tbaa !29
  %26 = load i32, ptr %12, align 4, !tbaa !29
  %27 = call i32 @bfdec_divrem(ptr noundef %20, ptr noundef %21, ptr noundef %22, ptr noundef %23, i64 noundef %24, i32 noundef %25, i32 noundef %26)
  store i32 %27, ptr %15, align 4, !tbaa !29
  %28 = load ptr, ptr %14, align 8, !tbaa !12
  call void @bfdec_delete(ptr noundef %28)
  %29 = load i32, ptr %15, align 4, !tbaa !29
  call void @llvm.lifetime.end.p0(i64 4, ptr %15) #10
  call void @llvm.lifetime.end.p0(i64 8, ptr %14) #10
  call void @llvm.lifetime.end.p0(i64 40, ptr %13) #10
  ret i32 %29
}