; Function Attrs: nounwind uwtable
define dso_local i32 @bfdec_rem(ptr noundef %0, ptr noundef captures(address) %1, ptr noundef readonly captures(none) %2, i64 noundef %3, i32 noundef %4, i32 noundef %5) local_unnamed_addr #2 {
  %7 = alloca %struct.bfdec_t, align 8
  call void @llvm.lifetime.start.p0(i64 40, ptr nonnull %7) #21
  %8 = load ptr, ptr %0, align 8, !tbaa !28
  store ptr %8, ptr %7, align 8, !tbaa !28
  %9 = getelementptr inbounds nuw i8, ptr %7, i64 8
  store i32 0, ptr %9, align 8, !tbaa !30
  %10 = getelementptr inbounds nuw i8, ptr %7, i64 16
  store i64 -9223372036854775808, ptr %10, align 8, !tbaa !31
  %11 = getelementptr inbounds nuw i8, ptr %7, i64 24
  call void @llvm.memset.p0.i64(ptr noundef nonnull align 8 dereferenceable(16) %11, i8 0, i64 16, i1 false)
  %12 = call i32 @bfdec_divrem(ptr noundef nonnull %7, ptr noundef nonnull %0, ptr noundef %1, ptr noundef %2, i64 noundef %3, i32 noundef %4, i32 noundef %5)
  %.val = load ptr, ptr %7, align 8, !tbaa !28
  %13 = getelementptr inbounds nuw i8, ptr %7, i64 32
  %.val10 = load ptr, ptr %13, align 8
  %.not.i.i = icmp eq ptr %.val, null
  %.not6.i.i = icmp eq ptr %.val10, null
  %or.cond.i = select i1 %.not.i.i, i1 true, i1 %.not6.i.i
  br i1 %or.cond.i, label %bfdec_delete.exit, label %14

14:                                               ; preds = %6
  %.val.i.i = load ptr, ptr %.val, align 8, !tbaa !19
  %15 = getelementptr i8, ptr %.val, i64 8
  %.val7.i.i = load ptr, ptr %15, align 8, !tbaa !7
  %16 = call ptr %.val7.i.i(ptr noundef %.val.i.i, ptr noundef nonnull %.val10, i64 noundef 0) #21
  br label %bfdec_delete.exit

bfdec_delete.exit:                                ; preds = %6, %14
  call void @llvm.lifetime.end.p0(i64 40, ptr nonnull %7) #21
  ret i32 %12
}